; ModuleID = '46/3381.c'
source_filename = "46/3381.c"
target datalayout = "e-m:e-p270:32:32-p271:32:32-p272:64:64-i64:64-f80:128-n8:16:32:64-S128"
target triple = "x86_64-pc-linux-gnu"

@.str = private unnamed_addr constant [6 x i8] c"%d %d\00", align 1
@.str.1 = private unnamed_addr constant [3 x i8] c"%d\00", align 1
@.str.2 = private unnamed_addr constant [4 x i8] c"%d\0A\00", align 1

; Function Attrs: noinline nounwind uwtable
define dso_local i32 @main() #0 {
  %1 = alloca i32, align 4
  %2 = alloca i32, align 4
  %3 = alloca i32, align 4
  %4 = alloca i32, align 4
  %5 = alloca i32, align 4
  %6 = alloca i32, align 4
  %7 = alloca i32, align 4
  %8 = alloca [1000 x [1000 x i32]], align 16
  %9 = alloca i32, align 4
  %10 = alloca i32, align 4
  store i32 0, i32* %1, align 4
  %11 = call i32 (i8*, ...) @__isoc99_scanf(i8* getelementptr inbounds ([6 x i8], [6 x i8]* @.str, i64 0, i64 0), i32* %2, i32* %3)
  store i32 0, i32* %4, align 4
  br label %12

12:                                               ; preds = %33, %0
  %13 = load i32, i32* %4, align 4
  %14 = load i32, i32* %2, align 4
  %15 = icmp slt i32 %13, %14
  br i1 %15, label %16, label %36

16:                                               ; preds = %12
  store i32 0, i32* %5, align 4
  br label %17

17:                                               ; preds = %29, %16
  %18 = load i32, i32* %5, align 4
  %19 = load i32, i32* %3, align 4
  %20 = icmp slt i32 %18, %19
  br i1 %20, label %21, label %32

21:                                               ; preds = %17
  %22 = load i32, i32* %4, align 4
  %23 = sext i32 %22 to i64
  %24 = getelementptr inbounds [1000 x [1000 x i32]], [1000 x [1000 x i32]]* %8, i64 0, i64 %23
  %25 = load i32, i32* %5, align 4
  %26 = sext i32 %25 to i64
  %27 = getelementptr inbounds [1000 x i32], [1000 x i32]* %24, i64 0, i64 %26
  %28 = call i32 (i8*, ...) @__isoc99_scanf(i8* getelementptr inbounds ([3 x i8], [3 x i8]* @.str.1, i64 0, i64 0), i32* %27)
  br label %29

29:                                               ; preds = %21
  %30 = load i32, i32* %5, align 4
  %31 = add nsw i32 %30, 1
  store i32 %31, i32* %5, align 4
  br label %17

32:                                               ; preds = %17
  br label %33

33:                                               ; preds = %32
  %34 = load i32, i32* %4, align 4
  %35 = add nsw i32 %34, 1
  store i32 %35, i32* %4, align 4
  br label %12

36:                                               ; preds = %12
  store i32 0, i32* %9, align 4
  store i32 0, i32* %10, align 4
  store i32 0, i32* %4, align 4
  store i32 0, i32* %6, align 4
  %37 = load i32, i32* %2, align 4
  %38 = load i32, i32* %3, align 4
  %39 = mul nsw i32 %37, %38
  store i32 %39, i32* %7, align 4
  br label %40

40:                                               ; preds = %158, %36
  %41 = load i32, i32* %6, align 4
  %42 = load i32, i32* %7, align 4
  %43 = icmp slt i32 %41, %42
  br i1 %43, label %44, label %161

44:                                               ; preds = %40
  %45 = load i32, i32* %9, align 4
  store i32 %45, i32* %4, align 4
  %46 = load i32, i32* %10, align 4
  store i32 %46, i32* %5, align 4
  br label %47

47:                                               ; preds = %67, %44
  %48 = load i32, i32* %5, align 4
  %49 = load i32, i32* %3, align 4
  %50 = icmp slt i32 %48, %49
  br i1 %50, label %51, label %70

51:                                               ; preds = %47
  %52 = load i32, i32* %6, align 4
  %53 = load i32, i32* %7, align 4
  %54 = icmp slt i32 %52, %53
  br i1 %54, label %55, label %66

55:                                               ; preds = %51
  %56 = load i32, i32* %4, align 4
  %57 = sext i32 %56 to i64
  %58 = getelementptr inbounds [1000 x [1000 x i32]], [1000 x [1000 x i32]]* %8, i64 0, i64 %57
  %59 = load i32, i32* %5, align 4
  %60 = sext i32 %59 to i64
  %61 = getelementptr inbounds [1000 x i32], [1000 x i32]* %58, i64 0, i64 %60
  %62 = load i32, i32* %61, align 4
  %63 = call i32 (i8*, ...) @printf(i8* getelementptr inbounds ([4 x i8], [4 x i8]* @.str.2, i64 0, i64 0), i32 %62)
  %64 = load i32, i32* %6, align 4
  %65 = add nsw i32 %64, 1
  store i32 %65, i32* %6, align 4
  br label %66

66:                                               ; preds = %55, %51
  br label %67

67:                                               ; preds = %66
  %68 = load i32, i32* %5, align 4
  %69 = add nsw i32 %68, 1
  store i32 %69, i32* %5, align 4
  br label %47

70:                                               ; preds = %47
  %71 = load i32, i32* %9, align 4
  %72 = add nsw i32 %71, 1
  store i32 %72, i32* %9, align 4
  %73 = load i32, i32* %9, align 4
  store i32 %73, i32* %4, align 4
  %74 = load i32, i32* %3, align 4
  %75 = sub nsw i32 %74, 1
  store i32 %75, i32* %5, align 4
  br label %76

76:                                               ; preds = %96, %70
  %77 = load i32, i32* %4, align 4
  %78 = load i32, i32* %2, align 4
  %79 = icmp slt i32 %77, %78
  br i1 %79, label %80, label %99

80:                                               ; preds = %76
  %81 = load i32, i32* %6, align 4
  %82 = load i32, i32* %7, align 4
  %83 = icmp slt i32 %81, %82
  br i1 %83, label %84, label %95

84:                                               ; preds = %80
  %85 = load i32, i32* %4, align 4
  %86 = sext i32 %85 to i64
  %87 = getelementptr inbounds [1000 x [1000 x i32]], [1000 x [1000 x i32]]* %8, i64 0, i64 %86
  %88 = load i32, i32* %5, align 4
  %89 = sext i32 %88 to i64
  %90 = getelementptr inbounds [1000 x i32], [1000 x i32]* %87, i64 0, i64 %89
  %91 = load i32, i32* %90, align 4
  %92 = call i32 (i8*, ...) @printf(i8* getelementptr inbounds ([4 x i8], [4 x i8]* @.str.2, i64 0, i64 0), i32 %91)
  %93 = load i32, i32* %6, align 4
  %94 = add nsw i32 %93, 1
  store i32 %94, i32* %6, align 4
  br label %95

95:                                               ; preds = %84, %80
  br label %96

96:                                               ; preds = %95
  %97 = load i32, i32* %4, align 4
  %98 = add nsw i32 %97, 1
  store i32 %98, i32* %4, align 4
  br label %76

99:                                               ; preds = %76
  %100 = load i32, i32* %3, align 4
  %101 = add nsw i32 %100, -1
  store i32 %101, i32* %3, align 4
  %102 = load i32, i32* %3, align 4
  %103 = sub nsw i32 %102, 1
  store i32 %103, i32* %5, align 4
  %104 = load i32, i32* %2, align 4
  %105 = sub nsw i32 %104, 1
  store i32 %105, i32* %4, align 4
  br label %106

106:                                              ; preds = %126, %99
  %107 = load i32, i32* %5, align 4
  %108 = load i32, i32* %10, align 4
  %109 = icmp sge i32 %107, %108
  br i1 %109, label %110, label %129

110:                                              ; preds = %106
  %111 = load i32, i32* %6, align 4
  %112 = load i32, i32* %7, align 4
  %113 = icmp slt i32 %111, %112
  br i1 %113, label %114, label %125

114:                                              ; preds = %110
  %115 = load i32, i32* %4, align 4
  %116 = sext i32 %115 to i64
  %117 = getelementptr inbounds [1000 x [1000 x i32]], [1000 x [1000 x i32]]* %8, i64 0, i64 %116
  %118 = load i32, i32* %5, align 4
  %119 = sext i32 %118 to i64
  %120 = getelementptr inbounds [1000 x i32], [1000 x i32]* %117, i64 0, i64 %119
  %121 = load i32, i32* %120, align 4
  %122 = call i32 (i8*, ...) @printf(i8* getelementptr inbounds ([4 x i8], [4 x i8]* @.str.2, i64 0, i64 0), i32 %121)
  %123 = load i32, i32* %6, align 4
  %124 = add nsw i32 %123, 1
  store i32 %124, i32* %6, align 4
  br label %125

125:                                              ; preds = %114, %110
  br label %126

126:                                              ; preds = %125
  %127 = load i32, i32* %5, align 4
  %128 = add nsw i32 %127, -1
  store i32 %128, i32* %5, align 4
  br label %106

129:                                              ; preds = %106
  %130 = load i32, i32* %2, align 4
  %131 = add nsw i32 %130, -1
  store i32 %131, i32* %2, align 4
  %132 = load i32, i32* %2, align 4
  %133 = sub nsw i32 %132, 1
  store i32 %133, i32* %4, align 4
  %134 = load i32, i32* %10, align 4
  store i32 %134, i32* %5, align 4
  br label %135

135:                                              ; preds = %155, %129
  %136 = load i32, i32* %4, align 4
  %137 = load i32, i32* %9, align 4
  %138 = icmp sge i32 %136, %137
  br i1 %138, label %139, label %158

139:                                              ; preds = %135
  %140 = load i32, i32* %6, align 4
  %141 = load i32, i32* %7, align 4
  %142 = icmp slt i32 %140, %141
  br i1 %142, label %143, label %154

143:                                              ; preds = %139
  %144 = load i32, i32* %4, align 4
  %145 = sext i32 %144 to i64
  %146 = getelementptr inbounds [1000 x [1000 x i32]], [1000 x [1000 x i32]]* %8, i64 0, i64 %145
  %147 = load i32, i32* %5, align 4
  %148 = sext i32 %147 to i64
  %149 = getelementptr inbounds [1000 x i32], [1000 x i32]* %146, i64 0, i64 %148
  %150 = load i32, i32* %149, align 4
  %151 = call i32 (i8*, ...) @printf(i8* getelementptr inbounds ([4 x i8], [4 x i8]* @.str.2, i64 0, i64 0), i32 %150)
  %152 = load i32, i32* %6, align 4
  %153 = add nsw i32 %152, 1
  store i32 %153, i32* %6, align 4
  br label %154

154:                                              ; preds = %143, %139
  br label %155

155:                                              ; preds = %154
  %156 = load i32, i32* %4, align 4
  %157 = add nsw i32 %156, -1
  store i32 %157, i32* %4, align 4
  br label %135

158:                                              ; preds = %135
  %159 = load i32, i32* %10, align 4
  %160 = add nsw i32 %159, 1
  store i32 %160, i32* %10, align 4
  br label %40

161:                                              ; preds = %40
  ret i32 0
}

declare dso_local i32 @__isoc99_scanf(i8*, ...) #1

declare dso_local i32 @printf(i8*, ...) #1


!llvm.module.flags = !{!0}
!llvm.ident = !{!1}

!0 = !{i32 1, !"wchar_size", i32 4}
!1 = !{!"clang version 10.0.0-4ubuntu1 "}
